target datalayout = "e-m:e-p270:32:32-p271:32:32-p272:64:64-i64:64-i128:128-f80:128-n8:16:32:64-S128"
target triple = "x86_64-pc-linux-gnu"

@.str.12 = private unnamed_addr constant [14 x i8] c"DH PARAMETERS\00", align 1
@.str.13 = private unnamed_addr constant [20 x i8] c"X9.42 DH PARAMETERS\00", align 1
@.str.14 = private unnamed_addr constant [32 x i8] c"../openssl/crypto/pem/pem_all.c\00", align 1
@__func__.PEM_read_bio_DHparams = private unnamed_addr constant [22 x i8] c"PEM_read_bio_DHparams\00", align 1

; Function Attrs: nounwind uwtable
define ptr @PEM_read_bio_DHparams(ptr noundef %0, ptr noundef %1, ptr noundef %2, ptr noundef %3) #0 {
  %5 = alloca ptr, align 8
  %6 = alloca ptr, align 8
  %7 = alloca ptr, align 8
  %8 = alloca ptr, align 8
  %9 = alloca ptr, align 8
  %10 = alloca ptr, align 8
  %11 = alloca ptr, align 8
  %12 = alloca ptr, align 8
  %13 = alloca i64, align 8
  %14 = alloca ptr, align 8
  %15 = alloca i32, align 4
  store ptr %0, ptr %6, align 8, !tbaa !3
  store ptr %1, ptr %7, align 8, !tbaa !57
  store ptr %2, ptr %8, align 8, !tbaa !10
  store ptr %3, ptr %9, align 8, !tbaa !10
  call void @llvm.lifetime.start.p0(i64 8, ptr %10) #4
  store ptr null, ptr %10, align 8, !tbaa !39
  call void @llvm.lifetime.start.p0(i64 8, ptr %11) #4
  store ptr null, ptr %11, align 8, !tbaa !39
  call void @llvm.lifetime.start.p0(i64 8, ptr %12) #4
  store ptr null, ptr %12, align 8, !tbaa !39
  call void @llvm.lifetime.start.p0(i64 8, ptr %13) #4
  call void @llvm.lifetime.start.p0(i64 8, ptr %14) #4
  store ptr null, ptr %14, align 8, !tbaa !55
  %16 = load ptr, ptr %6, align 8, !tbaa !3
  %17 = load ptr, ptr %8, align 8, !tbaa !10
  %18 = load ptr, ptr %9, align 8, !tbaa !10
  %19 = call i32 @PEM_bytes_read_bio(ptr noundef %12, ptr noundef %13, ptr noundef %10, ptr noundef @.str.12, ptr noundef %16, ptr noundef %17, ptr noundef %18)
  %20 = icmp ne i32 %19, 0
  br i1 %20, label %22, label %21

21:                                               ; preds = %4
  store ptr null, ptr %5, align 8
  store i32 1, ptr %15, align 4
  br label %43

22:                                               ; preds = %4
  %23 = load ptr, ptr %12, align 8, !tbaa !39
  store ptr %23, ptr %11, align 8, !tbaa !39
  %24 = load ptr, ptr %10, align 8, !tbaa !39
  %25 = call i32 @strcmp(ptr noundef %24, ptr noundef @.str.13) #5
  %26 = icmp eq i32 %25, 0
  br i1 %26, label %27, label %31

27:                                               ; preds = %22
  %28 = load ptr, ptr %7, align 8, !tbaa !57
  %29 = load i64, ptr %13, align 8, !tbaa !59
  %30 = call ptr @d2i_DHxparams(ptr noundef %28, ptr noundef %11, i64 noundef %29)
  store ptr %30, ptr %14, align 8, !tbaa !55
  br label %35

31:                                               ; preds = %22
  %32 = load ptr, ptr %7, align 8, !tbaa !57
  %33 = load i64, ptr %13, align 8, !tbaa !59
  %34 = call ptr @d2i_DHparams(ptr noundef %32, ptr noundef %11, i64 noundef %33)
  store ptr %34, ptr %14, align 8, !tbaa !55
  br label %35

35:                                               ; preds = %31, %27
  %36 = load ptr, ptr %14, align 8, !tbaa !55
  %37 = icmp eq ptr %36, null
  br i1 %37, label %38, label %39

38:                                               ; preds = %35
  call void @ERR_new()
  call void @ERR_set_debug(ptr noundef @.str.14, i32 noundef 202, ptr noundef @__func__.PEM_read_bio_DHparams)
  call void (i32, i32, ptr, ...) @ERR_set_error(i32 noundef 9, i32 noundef 524301, ptr noundef null)
  br label %39

39:                                               ; preds = %38, %35
  %40 = load ptr, ptr %10, align 8, !tbaa !39
  call void @CRYPTO_free(ptr noundef %40, ptr noundef @.str.14, i32 noundef 203)
  %41 = load ptr, ptr %12, align 8, !tbaa !39
  call void @CRYPTO_free(ptr noundef %41, ptr noundef @.str.14, i32 noundef 204)
  %42 = load ptr, ptr %14, align 8, !tbaa !55
  store ptr %42, ptr %5, align 8
  store i32 1, ptr %15, align 4
  br label %43

43:                                               ; preds = %39, %21
  call void @llvm.lifetime.end.p0(i64 8, ptr %14) #4
  call void @llvm.lifetime.end.p0(i64 8, ptr %13) #4
  call void @llvm.lifetime.end.p0(i64 8, ptr %12) #4
  call void @llvm.lifetime.end.p0(i64 8, ptr %11) #4
  call void @llvm.lifetime.end.p0(i64 8, ptr %10) #4
  %44 = load ptr, ptr %5, align 8
  ret ptr %44
}