; Function Attrs: nounwind uwtable
define ptr @PEM_read_bio_DHparams(ptr noundef %0, ptr noundef %1, ptr noundef %2, ptr noundef %3) local_unnamed_addr #0 {
  %5 = alloca ptr, align 8
  %6 = alloca ptr, align 8
  %7 = alloca ptr, align 8
  %8 = alloca i64, align 8
  call void @llvm.lifetime.start.p0(i64 8, ptr nonnull %5) #4
  store ptr null, ptr %5, align 8, !tbaa !12
  call void @llvm.lifetime.start.p0(i64 8, ptr nonnull %6) #4
  call void @llvm.lifetime.start.p0(i64 8, ptr nonnull %7) #4
  store ptr null, ptr %7, align 8, !tbaa !12
  call void @llvm.lifetime.start.p0(i64 8, ptr nonnull %8) #4
  %9 = call i32 @PEM_bytes_read_bio(ptr noundef nonnull %7, ptr noundef nonnull %8, ptr noundef nonnull %5, ptr noundef nonnull @.str.12, ptr noundef %0, ptr noundef %2, ptr noundef %3) #4
  %.not = icmp eq i32 %9, 0
  br i1 %.not, label %26, label %10

10:                                               ; preds = %4
  %11 = load ptr, ptr %7, align 8, !tbaa !12
  store ptr %11, ptr %6, align 8, !tbaa !12
  %12 = load ptr, ptr %5, align 8, !tbaa !12
  %13 = call i32 @strcmp(ptr noundef nonnull dereferenceable(1) %12, ptr noundef nonnull dereferenceable(20) @.str.13) #5
  %14 = icmp eq i32 %13, 0
  %15 = load i64, ptr %8, align 8, !tbaa !14
  br i1 %14, label %16, label %18

16:                                               ; preds = %10
  %17 = call ptr @d2i_DHxparams(ptr noundef %1, ptr noundef nonnull %6, i64 noundef %15) #4
  br label %20

18:                                               ; preds = %10
  %19 = call ptr @d2i_DHparams(ptr noundef %1, ptr noundef nonnull %6, i64 noundef %15) #4
  br label %20

20:                                               ; preds = %18, %16
  %.0 = phi ptr [ %17, %16 ], [ %19, %18 ]
  %21 = icmp eq ptr %.0, null
  br i1 %21, label %22, label %23

22:                                               ; preds = %20
  call void @ERR_new() #4
  call void @ERR_set_debug(ptr noundef nonnull @.str.14, i32 noundef 202, ptr noundef nonnull @__func__.PEM_read_bio_DHparams) #4
  call void (i32, i32, ptr, ...) @ERR_set_error(i32 noundef 9, i32 noundef 524301, ptr noundef null) #4
  br label %23

23:                                               ; preds = %22, %20
  %24 = load ptr, ptr %5, align 8, !tbaa !12
  call void @CRYPTO_free(ptr noundef %24, ptr noundef nonnull @.str.14, i32 noundef 203) #4
  %25 = load ptr, ptr %7, align 8, !tbaa !12
  call void @CRYPTO_free(ptr noundef %25, ptr noundef nonnull @.str.14, i32 noundef 204) #4
  br label %26

26:                                               ; preds = %4, %23
  %.08 = phi ptr [ %.0, %23 ], [ null, %4 ]
  call void @llvm.lifetime.end.p0(i64 8, ptr nonnull %8) #4
  call void @llvm.lifetime.end.p0(i64 8, ptr nonnull %7) #4
  call void @llvm.lifetime.end.p0(i64 8, ptr nonnull %6) #4
  call void @llvm.lifetime.end.p0(i64 8, ptr nonnull %5) #4
  ret ptr %.08
}